target datalayout = "e-m:e-p270:32:32-p271:32:32-p272:64:64-i64:64-i128:128-f80:128-n8:16:32:64-S128"
target triple = "x86_64-pc-linux-gnu"

%"class.OpenSubdiv::v3_6_0::Sdc::Options" = type { i8, i8, i8, i8 }
%"class.OpenSubdiv::v3_6_0::Bfr::FaceTopology" = type { i32, %"class.OpenSubdiv::v3_6_0::Sdc::Options", i32, i32, i32, %"class.OpenSubdiv::v3_6_0::Bfr::MultiVertexTag", i8, %"class.OpenSubdiv::v3_6_0::Vtr::internal::StackBuffer" }
%"class.OpenSubdiv::v3_6_0::Bfr::MultiVertexTag" = type { %"class.OpenSubdiv::v3_6_0::Bfr::FeatureBits" }
%"class.OpenSubdiv::v3_6_0::Bfr::FeatureBits" = type { i16 }
%"class.OpenSubdiv::v3_6_0::Vtr::internal::StackBuffer" = type { ptr, i32, i32, [896 x i8], ptr }
%"class.OpenSubdiv::v3_6_0::Bfr::FaceVertex" = type { %"class.OpenSubdiv::v3_6_0::Bfr::VertexDescriptor", %"class.OpenSubdiv::v3_6_0::Bfr::VertexTag", i16, i16, i8, i8, i32, %"class.OpenSubdiv::v3_6_0::Vtr::internal::StackBuffer.2" }
%"class.OpenSubdiv::v3_6_0::Bfr::VertexDescriptor" = type { i8, i16, float, %"class.OpenSubdiv::v3_6_0::Vtr::internal::StackBuffer.0", %"class.OpenSubdiv::v3_6_0::Vtr::internal::StackBuffer.1" }
%"class.OpenSubdiv::v3_6_0::Vtr::internal::StackBuffer.0" = type { ptr, i32, i32, [64 x i8], ptr }
%"class.OpenSubdiv::v3_6_0::Vtr::internal::StackBuffer.1" = type { ptr, i32, i32, [32 x i8], ptr }
%"class.OpenSubdiv::v3_6_0::Bfr::VertexTag" = type { %"class.OpenSubdiv::v3_6_0::Bfr::FeatureBits" }
%"class.OpenSubdiv::v3_6_0::Vtr::internal::StackBuffer.2" = type { ptr, i32, i32, [32 x i8], ptr }

; Function Attrs: mustprogress nounwind uwtable
define linkonce_odr void @_ZN10OpenSubdiv6v3_6_03Bfr11FeatureBitsD2Ev(ptr noundef nonnull align 2 dereferenceable(2) %0) unnamed_addr #3 comdat align 2 {
  %2 = alloca ptr, align 8
  store ptr %0, ptr %2, align 8
  ret void
}

; Function Attrs: mustprogress nounwind uwtable
define linkonce_odr void @_ZN10OpenSubdiv6v3_6_03Bfr11FeatureBits7SetBitsEt(ptr noundef nonnull align 2 dereferenceable(2) %0, i16 noundef zeroext %1) #3 comdat align 2 {
  %3 = alloca ptr, align 8
  %4 = alloca i16, align 2
  store ptr %0, ptr %3, align 8
  store i16 %1, ptr %4, align 2
  %5 = load ptr, ptr %3, align 8
  call void @llvm.memcpy.p0.p0.i64(ptr align 2 %5, ptr align 2 %4, i64 2, i1 false)
  ret void
}

; Function Attrs: mustprogress nounwind uwtable
define linkonce_odr noundef zeroext i16 @_ZNK10OpenSubdiv6v3_6_03Bfr11FeatureBits7GetBitsEv(ptr noundef nonnull align 2 dereferenceable(2) %0) #3 comdat align 2 {
  %2 = alloca ptr, align 8
  %3 = alloca i16, align 2
  store ptr %0, ptr %2, align 8
  %4 = load ptr, ptr %2, align 8
  call void @llvm.memcpy.p0.p0.i64(ptr align 2 %3, ptr align 2 %4, i64 2, i1 false)
  %5 = load i16, ptr %3, align 2
  ret i16 %5
}

; Function Attrs: mustprogress nounwind uwtable
define linkonce_odr noundef ptr @_ZN10OpenSubdiv6v3_6_03Vtr8internal11StackBufferINS0_3Bfr10FaceVertexELj4ELb0EEcvPS5_Ev(ptr noundef nonnull align 8 dereferenceable(920) %0) #3 comdat align 2 {
  %2 = alloca ptr, align 8
  store ptr %0, ptr %2, align 8
  %3 = load ptr, ptr %2, align 8
  %4 = getelementptr inbounds nuw %"class.OpenSubdiv::v3_6_0::Vtr::internal::StackBuffer", ptr %3, i32 0, i32 0
  %5 = load ptr, ptr %4, align 8
  ret ptr %5
}

; Function Attrs: mustprogress nounwind uwtable
define linkonce_odr noundef i32 @_ZNK10OpenSubdiv6v3_6_03Bfr10FaceVertex18GetNumFaceVerticesEv(ptr noundef nonnull align 8 dereferenceable(224) %0) #3 comdat align 2 {
  %2 = alloca ptr, align 8
  store ptr %0, ptr %2, align 8
  %3 = load ptr, ptr %2, align 8
  %4 = getelementptr inbounds nuw %"class.OpenSubdiv::v3_6_0::Bfr::FaceVertex", ptr %3, i32 0, i32 6
  %5 = load i32, ptr %4, align 8
  ret i32 %5
}

; Function Attrs: mustprogress nounwind uwtable
define linkonce_odr void @_ZN10OpenSubdiv6v3_6_03Bfr9VertexTagD2Ev(ptr noundef nonnull align 2 dereferenceable(2) %0) unnamed_addr #3 comdat align 2 {
  %2 = alloca ptr, align 8
  store ptr %0, ptr %2, align 8
  %3 = load ptr, ptr %2, align 8
  call void @_ZN10OpenSubdiv6v3_6_03Bfr11FeatureBitsD2Ev(ptr noundef nonnull align 2 dereferenceable(2) %3) #7
  ret void
}

; Function Attrs: mustprogress uwtable
define linkonce_odr void @_ZN10OpenSubdiv6v3_6_03Bfr14MultiVertexTag7CombineERKNS1_9VertexTagE(ptr noundef nonnull align 2 dereferenceable(2) %0, ptr noundef nonnull align 2 dereferenceable(2) %1) #0 comdat align 2 {
  %3 = alloca ptr, align 8
  %4 = alloca ptr, align 8
  store ptr %0, ptr %3, align 8
  store ptr %1, ptr %4, align 8
  %5 = load ptr, ptr %3, align 8
  %6 = call noundef zeroext i16 @_ZNK10OpenSubdiv6v3_6_03Bfr11FeatureBits7GetBitsEv(ptr noundef nonnull align 2 dereferenceable(2) %5)
  %7 = zext i16 %6 to i32
  %8 = load ptr, ptr %4, align 8
  %9 = call noundef zeroext i16 @_ZNK10OpenSubdiv6v3_6_03Bfr11FeatureBits7GetBitsEv(ptr noundef nonnull align 2 dereferenceable(2) %8)
  %10 = zext i16 %9 to i32
  %11 = or i32 %7, %10
  %12 = trunc i32 %11 to i16
  call void @_ZN10OpenSubdiv6v3_6_03Bfr11FeatureBits7SetBitsEt(ptr noundef nonnull align 2 dereferenceable(2) %5, i16 noundef zeroext %12)
  ret void
}

; Function Attrs: mustprogress nounwind uwtable
define linkonce_odr void @_ZNK10OpenSubdiv6v3_6_03Bfr10FaceVertex6GetTagEv(ptr dead_on_unwind noalias writable sret(%"class.OpenSubdiv::v3_6_0::Bfr::VertexTag") align 2 %0, ptr noundef nonnull align 8 dereferenceable(224) %1) #3 comdat align 2 {
  %3 = alloca ptr, align 8
  %4 = alloca ptr, align 8
  store ptr %0, ptr %3, align 8
  store ptr %1, ptr %4, align 8
  %5 = load ptr, ptr %4, align 8
  %6 = getelementptr inbounds nuw %"class.OpenSubdiv::v3_6_0::Bfr::FaceVertex", ptr %5, i32 0, i32 1
  call void @llvm.memcpy.p0.p0.i64(ptr align 2 %0, ptr align 8 %6, i64 2, i1 false)
  ret void
}

; Function Attrs: mustprogress uwtable
define linkonce_odr noundef nonnull align 8 dereferenceable(224) ptr @_ZN10OpenSubdiv6v3_6_03Bfr12FaceTopology11GetTopologyEi(ptr noundef nonnull align 8 dereferenceable(944) %0, i32 noundef %1) #0 comdat align 2 {
  %3 = alloca ptr, align 8
  %4 = alloca i32, align 4
  store ptr %0, ptr %3, align 8
  store i32 %1, ptr %4, align 4
  %5 = load ptr, ptr %3, align 8
  %6 = getelementptr inbounds nuw %"class.OpenSubdiv::v3_6_0::Bfr::FaceTopology", ptr %5, i32 0, i32 7
  %7 = call noundef ptr @_ZN10OpenSubdiv6v3_6_03Vtr8internal11StackBufferINS0_3Bfr10FaceVertexELj4ELb0EEcvPS5_Ev(ptr noundef nonnull align 8 dereferenceable(920) %6)
  %8 = load i32, ptr %4, align 4
  %9 = sext i32 %8 to i64
  %10 = getelementptr inbounds %"class.OpenSubdiv::v3_6_0::Bfr::FaceVertex", ptr %7, i64 %9
  ret ptr %10
}

; Function Attrs: mustprogress uwtable
define void @_ZN10OpenSubdiv6v3_6_03Bfr12FaceTopology8FinalizeEv(ptr noundef nonnull align 8 dereferenceable(944) %0) #0 align 2 personality ptr @__gxx_personality_v0 {
  %2 = alloca ptr, align 8
  %3 = alloca i32, align 4
  %4 = alloca ptr, align 8
  %5 = alloca %"class.OpenSubdiv::v3_6_0::Bfr::VertexTag", align 2
  %6 = alloca ptr, align 8
  %7 = alloca i32, align 4
  store ptr %0, ptr %2, align 8
  %8 = load ptr, ptr %2, align 8
  store i32 0, ptr %3, align 4
  br label %9

9:                                                ; preds = %25, %1
  %10 = load i32, ptr %3, align 4
  %11 = getelementptr inbounds nuw %"class.OpenSubdiv::v3_6_0::Bfr::FaceTopology", ptr %8, i32 0, i32 2
  %12 = load i32, ptr %11, align 8
  %13 = icmp slt i32 %10, %12
  br i1 %13, label %14, label %32

14:                                               ; preds = %9
  %15 = load i32, ptr %3, align 4
  %16 = call noundef nonnull align 8 dereferenceable(224) ptr @_ZN10OpenSubdiv6v3_6_03Bfr12FaceTopology11GetTopologyEi(ptr noundef nonnull align 8 dereferenceable(944) %8, i32 noundef %15)
  store ptr %16, ptr %4, align 8
  %17 = getelementptr inbounds nuw %"class.OpenSubdiv::v3_6_0::Bfr::FaceTopology", ptr %8, i32 0, i32 5
  %18 = load ptr, ptr %4, align 8
  call void @_ZNK10OpenSubdiv6v3_6_03Bfr10FaceVertex6GetTagEv(ptr dead_on_unwind writable sret(%"class.OpenSubdiv::v3_6_0::Bfr::VertexTag") align 2 %5, ptr noundef nonnull align 8 dereferenceable(224) %18)
  invoke void @_ZN10OpenSubdiv6v3_6_03Bfr14MultiVertexTag7CombineERKNS1_9VertexTagE(ptr noundef nonnull align 2 dereferenceable(2) %17, ptr noundef nonnull align 2 dereferenceable(2) %5)
          to label %19 unwind label %28

19:                                               ; preds = %14
  call void @_ZN10OpenSubdiv6v3_6_03Bfr9VertexTagD2Ev(ptr noundef nonnull align 2 dereferenceable(2) %5) #7
  %20 = load ptr, ptr %4, align 8
  %21 = call noundef i32 @_ZNK10OpenSubdiv6v3_6_03Bfr10FaceVertex18GetNumFaceVerticesEv(ptr noundef nonnull align 8 dereferenceable(224) %20)
  %22 = getelementptr inbounds nuw %"class.OpenSubdiv::v3_6_0::Bfr::FaceTopology", ptr %8, i32 0, i32 4
  %23 = load i32, ptr %22, align 8
  %24 = add nsw i32 %23, %21
  store i32 %24, ptr %22, align 8
  br label %25

25:                                               ; preds = %19
  %26 = load i32, ptr %3, align 4
  %27 = add nsw i32 %26, 1
  store i32 %27, ptr %3, align 4
  br label %9, !llvm.loop !8

28:                                               ; preds = %14
  %29 = landingpad { ptr, i32 }
          cleanup
  %30 = extractvalue { ptr, i32 } %29, 0
  store ptr %30, ptr %6, align 8
  %31 = extractvalue { ptr, i32 } %29, 1
  store i32 %31, ptr %7, align 4
  call void @_ZN10OpenSubdiv6v3_6_03Bfr9VertexTagD2Ev(ptr noundef nonnull align 2 dereferenceable(2) %5) #7
  br label %37

32:                                               ; preds = %9
  %33 = getelementptr inbounds nuw %"class.OpenSubdiv::v3_6_0::Bfr::FaceTopology", ptr %8, i32 0, i32 6
  %34 = load i8, ptr %33, align 2
  %35 = and i8 %34, -3
  %36 = or i8 %35, 2
  store i8 %36, ptr %33, align 2
  ret void

37:                                               ; preds = %28
  %38 = load ptr, ptr %6, align 8
  %39 = load i32, ptr %7, align 4
  %40 = insertvalue { ptr, i32 } poison, ptr %38, 0
  %41 = insertvalue { ptr, i32 } %40, i32 %39, 1
  resume { ptr, i32 } %41
}