; Function Attrs: mustprogress nofree norecurse nosync nounwind memory(read, argmem: readwrite, inaccessiblemem: none) uwtable
define void @_ZN10OpenSubdiv6v3_6_03Bfr12FaceTopology8FinalizeEv(ptr noundef nonnull align 8 captures(none) dereferenceable(944) %0) local_unnamed_addr #4 align 2 personality ptr @__gxx_personality_v0 {
  %2 = getelementptr inbounds nuw i8, ptr %0, i64 8
  %3 = load i32, ptr %2, align 8
  %4 = icmp sgt i32 %3, 0
  br i1 %4, label %.lr.ph, label %._crit_edge

.lr.ph:                                           ; preds = %1
  %5 = getelementptr inbounds nuw i8, ptr %0, i64 24
  %6 = load ptr, ptr %5, align 8
  %7 = getelementptr inbounds nuw i8, ptr %0, i64 20
  %8 = getelementptr inbounds nuw i8, ptr %0, i64 16
  %.promoted = load i16, ptr %7, align 4
  %.promoted8 = load i32, ptr %8, align 8
  %wide.trip.count = zext nneg i32 %3 to i64
  br label %9

9:                                                ; preds = %.lr.ph, %9
  %indvars.iv = phi i64 [ 0, %.lr.ph ], [ %indvars.iv.next, %9 ]
  %10 = phi i32 [ %.promoted8, %.lr.ph ], [ %18, %9 ]
  %11 = phi i16 [ %.promoted, %.lr.ph ], [ %15, %9 ]
  %12 = getelementptr inbounds nuw %"class.OpenSubdiv::v3_6_0::Bfr::FaceVertex", ptr %6, i64 %indvars.iv
  %13 = getelementptr inbounds nuw i8, ptr %12, i64 152
  %14 = load i16, ptr %13, align 8, !noalias !8
  %15 = or i16 %11, %14
  store i16 %15, ptr %7, align 4
  %16 = getelementptr inbounds nuw i8, ptr %12, i64 160
  %17 = load i32, ptr %16, align 8
  %18 = add nsw i32 %10, %17
  store i32 %18, ptr %8, align 8
  %indvars.iv.next = add nuw nsw i64 %indvars.iv, 1
  %exitcond.not = icmp eq i64 %indvars.iv.next, %wide.trip.count
  br i1 %exitcond.not, label %._crit_edge, label %9, !llvm.loop !11

._crit_edge:                                      ; preds = %9, %1
  %19 = getelementptr inbounds nuw i8, ptr %0, i64 22
  %20 = load i8, ptr %19, align 2
  %21 = or i8 %20, 2
  store i8 %21, ptr %19, align 2
  ret void
}